	.file	"io.c"
	.intel_syntax noprefix
	.text
.Ltext0:
	.cfi_sections	.debug_frame
	.globl	putc
	.type	putc, @function
putc:
.LFB0:
	.file 1 "io.c"
	.loc 1 6 0
	.cfi_startproc
	push	ebp
.LCFI0:
	.cfi_def_cfa_offset 8
	.cfi_offset 5, -8
	mov	ebp, esp
.LCFI1:
	.cfi_def_cfa_register 5
	sub	esp, 8
	mov	edx, DWORD PTR [ebp+8]
	mov	eax, DWORD PTR [ebp+12]
	mov	BYTE PTR [ebp-4], dl
	mov	BYTE PTR [ebp-8], al
	.loc 1 7 0
	mov	eax, 32
#APP
# 7 "io.c" 1
	mov edx, 0x20
	mov es, dx
# 0 "" 2
	.loc 1 9 0
# 9 "io.c" 1
	mov edx, (0x30 << 8) | 'a'
	mov word [es:0x0], edx
# 0 "" 2
	.loc 1 10 0
#NO_APP
	nop
	leave
.LCFI2:
	.cfi_restore 5
	.cfi_def_cfa 4, 4
	ret
	.cfi_endproc
.LFE0:
	.size	putc, .-putc
.Letext0:
	.section	.note.GNU-stack,"",@progbits
