	.file	"irq.c"
	.intel_syntax noprefix
	.text
.Ltext0:
	.cfi_sections	.debug_frame
	.local	irq_gates
	.comm	irq_gates,2048,32
	.globl	idt
	.data
	.align 4
	.type	idt, @object
	.size	idt, 8
idt:
	.value	2048
	.long	irq_gates
	.value	0
	.text
	.globl	setup_irq
	.type	setup_irq, @function
setup_irq:
.LFB0:
	.file 1 "irq.c"
	.loc 1 13 0
	.cfi_startproc
	push	ebp
.LCFI0:
	.cfi_def_cfa_offset 8
	.cfi_offset 5, -8
	mov	ebp, esp
.LCFI1:
	.cfi_def_cfa_register 5
	sub	esp, 8
	.loc 1 14 0
	call	irq0_init
	movzx	eax, WORD PTR task_id_irq0
	movzx	eax, ax
	sal	eax, 3
	sub	esp, 8
	push	0
	push	0
	push	34048
	push	0
	push	eax
	push	OFFSET FLAT:idt
	call	add_segment
	add	esp, 32
	.loc 1 15 0
	call	irq1_init
	movzx	eax, WORD PTR task_id_irq1
	movzx	eax, ax
	sal	eax, 3
	sub	esp, 8
	push	0
	push	1
	push	34048
	push	0
	push	eax
	push	OFFSET FLAT:idt
	call	add_segment
	add	esp, 32
	.loc 1 16 0
	call	irq8_init
	movzx	eax, WORD PTR task_id_irq8
	movzx	eax, ax
	sal	eax, 3
	sub	esp, 8
	push	0
	push	8
	push	34048
	push	0
	push	eax
	push	OFFSET FLAT:idt
	call	add_segment
	add	esp, 32
	.loc 1 17 0
	call	irq10_init
	movzx	eax, WORD PTR task_id_irq10
	movzx	eax, ax
	sal	eax, 3
	sub	esp, 8
	push	0
	push	10
	push	34048
	push	0
	push	eax
	push	OFFSET FLAT:idt
	call	add_segment
	add	esp, 32
	.loc 1 18 0
	call	irq11_init
	movzx	eax, WORD PTR task_id_irq11
	movzx	eax, ax
	sal	eax, 3
	sub	esp, 8
	push	0
	push	11
	push	34048
	push	0
	push	eax
	push	OFFSET FLAT:idt
	call	add_segment
	add	esp, 32
	.loc 1 19 0
	call	irq13_init
	movzx	eax, WORD PTR task_id_irq13
	movzx	eax, ax
	sal	eax, 3
	sub	esp, 8
	push	0
	push	13
	push	34048
	push	0
	push	eax
	push	OFFSET FLAT:idt
	call	add_segment
	add	esp, 32
	.loc 1 20 0
	call	irq32_init
	movzx	eax, WORD PTR task_id_irq32
	movzx	eax, ax
	sal	eax, 3
	sub	esp, 8
	push	0
	push	32
	push	34048
	push	0
	push	eax
	push	OFFSET FLAT:idt
	call	add_segment
	add	esp, 32
	.loc 1 25 0
#APP
# 25 "irq.c" 1
	lidt idt
# 0 "" 2
	.loc 1 26 0
#NO_APP
	nop
	leave
.LCFI2:
	.cfi_restore 5
	.cfi_def_cfa 4, 4
	ret
	.cfi_endproc
.LFE0:
	.size	setup_irq, .-setup_irq
	.globl	__TASK_START_irq0
	.type	__TASK_START_irq0, @function
__TASK_START_irq0:
.LFB1:
	.loc 1 28 0
	.cfi_startproc
	push	ebp
.LCFI3:
	.cfi_def_cfa_offset 8
	.cfi_offset 5, -8
	mov	ebp, esp
.LCFI4:
	.cfi_def_cfa_register 5
	.loc 1 28 0
	nop
	pop	ebp
.LCFI5:
	.cfi_restore 5
	.cfi_def_cfa 4, 4
	ret
	.cfi_endproc
.LFE1:
	.size	__TASK_START_irq0, .-__TASK_START_irq0
	.comm	irq0_ldt_segments,24,4
	.comm	ldt_irq0,8,4
	.comm	task_id_irq0,2,2
	.globl	irq0_tss
	.data
	.align 32
	.type	irq0_tss, @object
	.size	irq0_tss, 104
irq0_tss:
	.value	24
	.zero	6
	.value	16
	.zero	18
	.long	8192
	.long	divide_by_zero_handler
	.long	135
	.zero	16
	.long	12288
	.zero	12
	.value	32
	.zero	2
	.value	8
	.zero	2
	.value	16
	.zero	2
	.value	16
	.zero	2
	.value	16
	.zero	2
	.value	16
	.zero	10
	.text
	.globl	irq0_init
	.type	irq0_init, @function
irq0_init:
.LFB2:
	.loc 1 28 0
	.cfi_startproc
	push	ebp
.LCFI6:
	.cfi_def_cfa_offset 8
	.cfi_offset 5, -8
	mov	ebp, esp
.LCFI7:
	.cfi_def_cfa_register 5
	sub	esp, 24
	.loc 1 28 0
	mov	DWORD PTR ldt_irq0+2, OFFSET FLAT:irq0_ldt_segments
	mov	WORD PTR ldt_irq0, 24
	mov	WORD PTR ldt_irq0+6, 0
	mov	eax, OFFSET FLAT:irq0_tss
	sub	esp, 8
	push	1
	push	0
	push	1083648
	push	103
	push	eax
	push	OFFSET FLAT:gdt
	call	add_segment
	add	esp, 32
	mov	WORD PTR task_id_irq0, ax
	movzx	eax, WORD PTR ldt_irq0
	movzx	eax, ax
	mov	edx, OFFSET FLAT:irq0_ldt_segments
	sub	esp, 8
	push	1
	push	0
	push	4227584
	push	eax
	push	edx
	push	OFFSET FLAT:gdt
	call	add_segment
	add	esp, 32
	mov	WORD PTR [ebp-10], ax
	movzx	eax, WORD PTR task_id_irq0
	movzx	eax, ax
	add	eax, 53
	sal	eax, 12
	mov	DWORD PTR irq0_tss+4, eax
	movzx	eax, WORD PTR task_id_irq0
	movzx	eax, ax
	add	eax, 53
	sal	eax, 12
	mov	DWORD PTR irq0_tss+56, eax
	movzx	eax, WORD PTR [ebp-10]
	sal	eax, 3
	mov	WORD PTR irq0_tss+96, ax
	sub	esp, 8
	push	1
	push	0
	push	0
	push	0
	push	0
	push	OFFSET FLAT:ldt_irq0
	call	add_segment
	add	esp, 32
	mov	edx, OFFSET FLAT:__TASK_END_irq0
	mov	eax, OFFSET FLAT:__TASK_START_irq0
	sub	edx, eax
	mov	eax, edx
	mov	edx, eax
	mov	eax, OFFSET FLAT:__TASK_START_irq0
	sub	esp, 8
	push	1
	push	0
	push	14653952
	push	edx
	push	eax
	push	OFFSET FLAT:ldt_irq0
	call	add_segment
	add	esp, 32
	movzx	eax, WORD PTR task_id_irq0
	movzx	eax, ax
	add	eax, 53
	sal	eax, 12
	sub	esp, 8
	push	1
	push	0
	push	14652928
	push	65535
	push	eax
	push	OFFSET FLAT:ldt_irq0
	call	add_segment
	add	esp, 32
	nop
	leave
.LCFI8:
	.cfi_restore 5
	.cfi_def_cfa 4, 4
	ret
	.cfi_endproc
.LFE2:
	.size	irq0_init, .-irq0_init
	.globl	irq0_start
	.type	irq0_start, @function
irq0_start:
.LFB3:
	.loc 1 28 0
	.cfi_startproc
	push	ebp
.LCFI9:
	.cfi_def_cfa_offset 8
	.cfi_offset 5, -8
	mov	ebp, esp
.LCFI10:
	.cfi_def_cfa_register 5
	.loc 1 28 0
#APP
# 28 "irq.c" 1
	pushw 0xa0
# 0 "" 2
# 28 "irq.c" 1
	pushd 0x0
# 0 "" 2
# 28 "irq.c" 1
	jmp FAR PTR  [esp]
# 0 "" 2
#NO_APP
	nop
	pop	ebp
.LCFI11:
	.cfi_restore 5
	.cfi_def_cfa 4, 4
	ret
	.cfi_endproc
.LFE3:
	.size	irq0_start, .-irq0_start
	.globl	divide_by_zero_handler
	.type	divide_by_zero_handler, @function
divide_by_zero_handler:
.LFB4:
	.loc 1 29 0
	.cfi_startproc
	push	ebp
.LCFI12:
	.cfi_def_cfa_offset 8
	.cfi_offset 5, -8
	mov	ebp, esp
.LCFI13:
	.cfi_def_cfa_register 5
	sub	esp, 8
	.loc 1 30 0
#APP
# 30 "irq.c" 1
	add esp, 0x4
# 0 "" 2
# 30 "irq.c" 1
	leave
# 0 "" 2
# 30 "irq.c" 1
	pop eax
# 0 "" 2
# 30 "irq.c" 1
	iret
# 0 "" 2
	.loc 1 32 0
#NO_APP
	call	divide_by_zero_handler
	.loc 1 33 0
	nop
	leave
.LCFI14:
	.cfi_restore 5
	.cfi_def_cfa 4, 4
	ret
	.cfi_endproc
.LFE4:
	.size	divide_by_zero_handler, .-divide_by_zero_handler
	.globl	__TASK_END_irq0
	.type	__TASK_END_irq0, @function
__TASK_END_irq0:
.LFB5:
	.loc 1 34 0
	.cfi_startproc
	push	ebp
.LCFI15:
	.cfi_def_cfa_offset 8
	.cfi_offset 5, -8
	mov	ebp, esp
.LCFI16:
	.cfi_def_cfa_register 5
	.loc 1 34 0
	nop
	pop	ebp
.LCFI17:
	.cfi_restore 5
	.cfi_def_cfa 4, 4
	ret
	.cfi_endproc
.LFE5:
	.size	__TASK_END_irq0, .-__TASK_END_irq0
	.globl	__TASK_START_irq1
	.type	__TASK_START_irq1, @function
__TASK_START_irq1:
.LFB6:
	.loc 1 36 0
	.cfi_startproc
	push	ebp
.LCFI18:
	.cfi_def_cfa_offset 8
	.cfi_offset 5, -8
	mov	ebp, esp
.LCFI19:
	.cfi_def_cfa_register 5
	.loc 1 36 0
	nop
	pop	ebp
.LCFI20:
	.cfi_restore 5
	.cfi_def_cfa 4, 4
	ret
	.cfi_endproc
.LFE6:
	.size	__TASK_START_irq1, .-__TASK_START_irq1
	.comm	irq1_ldt_segments,24,4
	.comm	ldt_irq1,8,4
	.comm	task_id_irq1,2,2
	.globl	irq1_tss
	.data
	.align 32
	.type	irq1_tss, @object
	.size	irq1_tss, 104
irq1_tss:
	.value	24
	.zero	6
	.value	16
	.zero	18
	.long	8192
	.long	debug_exception
	.long	135
	.zero	16
	.long	12288
	.zero	12
	.value	32
	.zero	2
	.value	8
	.zero	2
	.value	16
	.zero	2
	.value	16
	.zero	2
	.value	16
	.zero	2
	.value	16
	.zero	10
	.text
	.globl	irq1_init
	.type	irq1_init, @function
irq1_init:
.LFB7:
	.loc 1 36 0
	.cfi_startproc
	push	ebp
.LCFI21:
	.cfi_def_cfa_offset 8
	.cfi_offset 5, -8
	mov	ebp, esp
.LCFI22:
	.cfi_def_cfa_register 5
	sub	esp, 24
	.loc 1 36 0
	mov	DWORD PTR ldt_irq1+2, OFFSET FLAT:irq1_ldt_segments
	mov	WORD PTR ldt_irq1, 24
	mov	WORD PTR ldt_irq1+6, 0
	mov	eax, OFFSET FLAT:irq1_tss
	sub	esp, 8
	push	1
	push	0
	push	1083648
	push	103
	push	eax
	push	OFFSET FLAT:gdt
	call	add_segment
	add	esp, 32
	mov	WORD PTR task_id_irq1, ax
	movzx	eax, WORD PTR ldt_irq1
	movzx	eax, ax
	mov	edx, OFFSET FLAT:irq1_ldt_segments
	sub	esp, 8
	push	1
	push	0
	push	4227584
	push	eax
	push	edx
	push	OFFSET FLAT:gdt
	call	add_segment
	add	esp, 32
	mov	WORD PTR [ebp-10], ax
	movzx	eax, WORD PTR task_id_irq1
	movzx	eax, ax
	add	eax, 53
	sal	eax, 12
	mov	DWORD PTR irq1_tss+4, eax
	movzx	eax, WORD PTR task_id_irq1
	movzx	eax, ax
	add	eax, 53
	sal	eax, 12
	mov	DWORD PTR irq1_tss+56, eax
	movzx	eax, WORD PTR [ebp-10]
	sal	eax, 3
	mov	WORD PTR irq1_tss+96, ax
	sub	esp, 8
	push	1
	push	0
	push	0
	push	0
	push	0
	push	OFFSET FLAT:ldt_irq1
	call	add_segment
	add	esp, 32
	mov	edx, OFFSET FLAT:__TASK_END_irq1
	mov	eax, OFFSET FLAT:__TASK_START_irq1
	sub	edx, eax
	mov	eax, edx
	mov	edx, eax
	mov	eax, OFFSET FLAT:__TASK_START_irq1
	sub	esp, 8
	push	1
	push	0
	push	14653952
	push	edx
	push	eax
	push	OFFSET FLAT:ldt_irq1
	call	add_segment
	add	esp, 32
	movzx	eax, WORD PTR task_id_irq1
	movzx	eax, ax
	add	eax, 53
	sal	eax, 12
	sub	esp, 8
	push	1
	push	0
	push	14652928
	push	65535
	push	eax
	push	OFFSET FLAT:ldt_irq1
	call	add_segment
	add	esp, 32
	nop
	leave
.LCFI23:
	.cfi_restore 5
	.cfi_def_cfa 4, 4
	ret
	.cfi_endproc
.LFE7:
	.size	irq1_init, .-irq1_init
	.globl	irq1_start
	.type	irq1_start, @function
irq1_start:
.LFB8:
	.loc 1 36 0
	.cfi_startproc
	push	ebp
.LCFI24:
	.cfi_def_cfa_offset 8
	.cfi_offset 5, -8
	mov	ebp, esp
.LCFI25:
	.cfi_def_cfa_register 5
	.loc 1 36 0
#APP
# 36 "irq.c" 1
	pushw 0xa0
# 0 "" 2
# 36 "irq.c" 1
	pushd 0x0
# 0 "" 2
# 36 "irq.c" 1
	jmp FAR PTR  [esp]
# 0 "" 2
#NO_APP
	nop
	pop	ebp
.LCFI26:
	.cfi_restore 5
	.cfi_def_cfa 4, 4
	ret
	.cfi_endproc
.LFE8:
	.size	irq1_start, .-irq1_start
	.globl	debug_exception
	.type	debug_exception, @function
debug_exception:
.LFB9:
	.loc 1 37 0
	.cfi_startproc
	push	ebp
.LCFI27:
	.cfi_def_cfa_offset 8
	.cfi_offset 5, -8
	mov	ebp, esp
.LCFI28:
	.cfi_def_cfa_register 5
	.loc 1 38 0
#APP
# 38 "irq.c" 1
	int 8
# 0 "" 2
	.loc 1 40 0
#NO_APP
	nop
	pop	ebp
.LCFI29:
	.cfi_restore 5
	.cfi_def_cfa 4, 4
	ret
	.cfi_endproc
.LFE9:
	.size	debug_exception, .-debug_exception
	.globl	__TASK_END_irq1
	.type	__TASK_END_irq1, @function
__TASK_END_irq1:
.LFB10:
	.loc 1 41 0
	.cfi_startproc
	push	ebp
.LCFI30:
	.cfi_def_cfa_offset 8
	.cfi_offset 5, -8
	mov	ebp, esp
.LCFI31:
	.cfi_def_cfa_register 5
	.loc 1 41 0
	nop
	pop	ebp
.LCFI32:
	.cfi_restore 5
	.cfi_def_cfa 4, 4
	ret
	.cfi_endproc
.LFE10:
	.size	__TASK_END_irq1, .-__TASK_END_irq1
	.globl	__TASK_START_irq8
	.type	__TASK_START_irq8, @function
__TASK_START_irq8:
.LFB11:
	.loc 1 43 0
	.cfi_startproc
	push	ebp
.LCFI33:
	.cfi_def_cfa_offset 8
	.cfi_offset 5, -8
	mov	ebp, esp
.LCFI34:
	.cfi_def_cfa_register 5
	.loc 1 43 0
	nop
	pop	ebp
.LCFI35:
	.cfi_restore 5
	.cfi_def_cfa 4, 4
	ret
	.cfi_endproc
.LFE11:
	.size	__TASK_START_irq8, .-__TASK_START_irq8
	.comm	irq8_ldt_segments,24,4
	.comm	ldt_irq8,8,4
	.comm	task_id_irq8,2,2
	.globl	irq8_tss
	.data
	.align 32
	.type	irq8_tss, @object
	.size	irq8_tss, 104
irq8_tss:
	.value	24
	.zero	6
	.value	16
	.zero	18
	.long	8192
	.long	double_fault_handler
	.long	135
	.zero	16
	.long	12288
	.zero	12
	.value	32
	.zero	2
	.value	8
	.zero	2
	.value	16
	.zero	2
	.value	16
	.zero	2
	.value	16
	.zero	2
	.value	16
	.zero	10
	.text
	.globl	irq8_init
	.type	irq8_init, @function
irq8_init:
.LFB12:
	.loc 1 43 0
	.cfi_startproc
	push	ebp
.LCFI36:
	.cfi_def_cfa_offset 8
	.cfi_offset 5, -8
	mov	ebp, esp
.LCFI37:
	.cfi_def_cfa_register 5
	sub	esp, 24
	.loc 1 43 0
	mov	DWORD PTR ldt_irq8+2, OFFSET FLAT:irq8_ldt_segments
	mov	WORD PTR ldt_irq8, 24
	mov	WORD PTR ldt_irq8+6, 0
	mov	eax, OFFSET FLAT:irq8_tss
	sub	esp, 8
	push	1
	push	0
	push	1083648
	push	103
	push	eax
	push	OFFSET FLAT:gdt
	call	add_segment
	add	esp, 32
	mov	WORD PTR task_id_irq8, ax
	movzx	eax, WORD PTR ldt_irq8
	movzx	eax, ax
	mov	edx, OFFSET FLAT:irq8_ldt_segments
	sub	esp, 8
	push	1
	push	0
	push	4227584
	push	eax
	push	edx
	push	OFFSET FLAT:gdt
	call	add_segment
	add	esp, 32
	mov	WORD PTR [ebp-10], ax
	movzx	eax, WORD PTR task_id_irq8
	movzx	eax, ax
	add	eax, 53
	sal	eax, 12
	mov	DWORD PTR irq8_tss+4, eax
	movzx	eax, WORD PTR task_id_irq8
	movzx	eax, ax
	add	eax, 53
	sal	eax, 12
	mov	DWORD PTR irq8_tss+56, eax
	movzx	eax, WORD PTR [ebp-10]
	sal	eax, 3
	mov	WORD PTR irq8_tss+96, ax
	sub	esp, 8
	push	1
	push	0
	push	0
	push	0
	push	0
	push	OFFSET FLAT:ldt_irq8
	call	add_segment
	add	esp, 32
	mov	edx, OFFSET FLAT:__TASK_END_irq8
	mov	eax, OFFSET FLAT:__TASK_START_irq8
	sub	edx, eax
	mov	eax, edx
	mov	edx, eax
	mov	eax, OFFSET FLAT:__TASK_START_irq8
	sub	esp, 8
	push	1
	push	0
	push	14653952
	push	edx
	push	eax
	push	OFFSET FLAT:ldt_irq8
	call	add_segment
	add	esp, 32
	movzx	eax, WORD PTR task_id_irq8
	movzx	eax, ax
	add	eax, 53
	sal	eax, 12
	sub	esp, 8
	push	1
	push	0
	push	14652928
	push	65535
	push	eax
	push	OFFSET FLAT:ldt_irq8
	call	add_segment
	add	esp, 32
	nop
	leave
.LCFI38:
	.cfi_restore 5
	.cfi_def_cfa 4, 4
	ret
	.cfi_endproc
.LFE12:
	.size	irq8_init, .-irq8_init
	.globl	irq8_start
	.type	irq8_start, @function
irq8_start:
.LFB13:
	.loc 1 43 0
	.cfi_startproc
	push	ebp
.LCFI39:
	.cfi_def_cfa_offset 8
	.cfi_offset 5, -8
	mov	ebp, esp
.LCFI40:
	.cfi_def_cfa_register 5
	.loc 1 43 0
#APP
# 43 "irq.c" 1
	pushw 0xa0
# 0 "" 2
# 43 "irq.c" 1
	pushd 0x0
# 0 "" 2
# 43 "irq.c" 1
	jmp FAR PTR  [esp]
# 0 "" 2
#NO_APP
	nop
	pop	ebp
.LCFI41:
	.cfi_restore 5
	.cfi_def_cfa 4, 4
	ret
	.cfi_endproc
.LFE13:
	.size	irq8_start, .-irq8_start
	.globl	double_fault_handler
	.type	double_fault_handler, @function
double_fault_handler:
.LFB14:
	.loc 1 44 0
	.cfi_startproc
	push	ebp
.LCFI42:
	.cfi_def_cfa_offset 8
	.cfi_offset 5, -8
	mov	ebp, esp
.LCFI43:
	.cfi_def_cfa_register 5
	sub	esp, 16
	.loc 1 45 0
	mov	eax, DWORD PTR [ebp+8]
	mov	DWORD PTR [ebp-4], eax
	.loc 1 46 0
#APP
# 46 "irq.c" 1
	add esp, 0x4
# 0 "" 2
# 46 "irq.c" 1
	leave
# 0 "" 2
# 46 "irq.c" 1
	pop eax
# 0 "" 2
# 46 "irq.c" 1
	iret
# 0 "" 2
#NO_APP
	.cfi_endproc
.LFE14:
	.size	double_fault_handler, .-double_fault_handler
	.globl	__TASK_END_irq8
	.type	__TASK_END_irq8, @function
__TASK_END_irq8:
.LFB15:
	.loc 1 49 0
	.cfi_startproc
	push	ebp
.LCFI44:
	.cfi_def_cfa_offset 8
	.cfi_offset 5, -8
	mov	ebp, esp
.LCFI45:
	.cfi_def_cfa_register 5
	.loc 1 49 0
	nop
	pop	ebp
.LCFI46:
	.cfi_restore 5
	.cfi_def_cfa 4, 4
	ret
	.cfi_endproc
.LFE15:
	.size	__TASK_END_irq8, .-__TASK_END_irq8
	.globl	__TASK_START_irq10
	.type	__TASK_START_irq10, @function
__TASK_START_irq10:
.LFB16:
	.loc 1 51 0
	.cfi_startproc
	push	ebp
.LCFI47:
	.cfi_def_cfa_offset 8
	.cfi_offset 5, -8
	mov	ebp, esp
.LCFI48:
	.cfi_def_cfa_register 5
	.loc 1 51 0
	nop
	pop	ebp
.LCFI49:
	.cfi_restore 5
	.cfi_def_cfa 4, 4
	ret
	.cfi_endproc
.LFE16:
	.size	__TASK_START_irq10, .-__TASK_START_irq10
	.comm	irq10_ldt_segments,24,4
	.comm	ldt_irq10,8,4
	.comm	task_id_irq10,2,2
	.globl	irq10_tss
	.data
	.align 32
	.type	irq10_tss, @object
	.size	irq10_tss, 104
irq10_tss:
	.value	24
	.zero	6
	.value	16
	.zero	18
	.long	8192
	.long	invalid_tss_handler
	.long	135
	.zero	16
	.long	12288
	.zero	12
	.value	32
	.zero	2
	.value	8
	.zero	2
	.value	16
	.zero	2
	.value	16
	.zero	2
	.value	16
	.zero	2
	.value	16
	.zero	10
	.text
	.globl	irq10_init
	.type	irq10_init, @function
irq10_init:
.LFB17:
	.loc 1 51 0
	.cfi_startproc
	push	ebp
.LCFI50:
	.cfi_def_cfa_offset 8
	.cfi_offset 5, -8
	mov	ebp, esp
.LCFI51:
	.cfi_def_cfa_register 5
	sub	esp, 24
	.loc 1 51 0
	mov	DWORD PTR ldt_irq10+2, OFFSET FLAT:irq10_ldt_segments
	mov	WORD PTR ldt_irq10, 24
	mov	WORD PTR ldt_irq10+6, 0
	mov	eax, OFFSET FLAT:irq10_tss
	sub	esp, 8
	push	1
	push	0
	push	1083648
	push	103
	push	eax
	push	OFFSET FLAT:gdt
	call	add_segment
	add	esp, 32
	mov	WORD PTR task_id_irq10, ax
	movzx	eax, WORD PTR ldt_irq10
	movzx	eax, ax
	mov	edx, OFFSET FLAT:irq10_ldt_segments
	sub	esp, 8
	push	1
	push	0
	push	4227584
	push	eax
	push	edx
	push	OFFSET FLAT:gdt
	call	add_segment
	add	esp, 32
	mov	WORD PTR [ebp-10], ax
	movzx	eax, WORD PTR task_id_irq10
	movzx	eax, ax
	add	eax, 53
	sal	eax, 12
	mov	DWORD PTR irq10_tss+4, eax
	movzx	eax, WORD PTR task_id_irq10
	movzx	eax, ax
	add	eax, 53
	sal	eax, 12
	mov	DWORD PTR irq10_tss+56, eax
	movzx	eax, WORD PTR [ebp-10]
	sal	eax, 3
	mov	WORD PTR irq10_tss+96, ax
	sub	esp, 8
	push	1
	push	0
	push	0
	push	0
	push	0
	push	OFFSET FLAT:ldt_irq10
	call	add_segment
	add	esp, 32
	mov	edx, OFFSET FLAT:__TASK_END_irq10
	mov	eax, OFFSET FLAT:__TASK_START_irq10
	sub	edx, eax
	mov	eax, edx
	mov	edx, eax
	mov	eax, OFFSET FLAT:__TASK_START_irq10
	sub	esp, 8
	push	1
	push	0
	push	14653952
	push	edx
	push	eax
	push	OFFSET FLAT:ldt_irq10
	call	add_segment
	add	esp, 32
	movzx	eax, WORD PTR task_id_irq10
	movzx	eax, ax
	add	eax, 53
	sal	eax, 12
	sub	esp, 8
	push	1
	push	0
	push	14652928
	push	65535
	push	eax
	push	OFFSET FLAT:ldt_irq10
	call	add_segment
	add	esp, 32
	nop
	leave
.LCFI52:
	.cfi_restore 5
	.cfi_def_cfa 4, 4
	ret
	.cfi_endproc
.LFE17:
	.size	irq10_init, .-irq10_init
	.globl	irq10_start
	.type	irq10_start, @function
irq10_start:
.LFB18:
	.loc 1 51 0
	.cfi_startproc
	push	ebp
.LCFI53:
	.cfi_def_cfa_offset 8
	.cfi_offset 5, -8
	mov	ebp, esp
.LCFI54:
	.cfi_def_cfa_register 5
	.loc 1 51 0
#APP
# 51 "irq.c" 1
	pushw 0xa0
# 0 "" 2
# 51 "irq.c" 1
	pushd 0x0
# 0 "" 2
# 51 "irq.c" 1
	jmp FAR PTR  [esp]
# 0 "" 2
#NO_APP
	nop
	pop	ebp
.LCFI55:
	.cfi_restore 5
	.cfi_def_cfa 4, 4
	ret
	.cfi_endproc
.LFE18:
	.size	irq10_start, .-irq10_start
	.globl	invalid_tss_handler
	.type	invalid_tss_handler, @function
invalid_tss_handler:
.LFB19:
	.loc 1 52 0
	.cfi_startproc
	push	ebp
.LCFI56:
	.cfi_def_cfa_offset 8
	.cfi_offset 5, -8
	mov	ebp, esp
.LCFI57:
	.cfi_def_cfa_register 5
	sub	esp, 16
	.loc 1 53 0
#APP
# 53 "irq.c" 1
	mov eax, [ebp + 4]
# 0 "" 2
	.loc 1 54 0
#NO_APP
	mov	DWORD PTR [ebp-4], 0
	.loc 1 55 0
#APP
# 55 "irq.c" 1
	mov eax, eax
# 0 "" 2
#NO_APP
	mov	DWORD PTR [ebp-4], eax
	.loc 1 56 0
#APP
# 56 "irq.c" 1
	add esp, 0x4
# 0 "" 2
# 56 "irq.c" 1
	leave
# 0 "" 2
# 56 "irq.c" 1
	pop eax
# 0 "" 2
# 56 "irq.c" 1
	iret
# 0 "" 2
	.loc 1 57 0
#NO_APP
	nop
	leave
.LCFI58:
	.cfi_restore 5
	.cfi_def_cfa 4, 4
	ret
	.cfi_endproc
.LFE19:
	.size	invalid_tss_handler, .-invalid_tss_handler
	.globl	__TASK_END_irq10
	.type	__TASK_END_irq10, @function
__TASK_END_irq10:
.LFB20:
	.loc 1 58 0
	.cfi_startproc
	push	ebp
.LCFI59:
	.cfi_def_cfa_offset 8
	.cfi_offset 5, -8
	mov	ebp, esp
.LCFI60:
	.cfi_def_cfa_register 5
	.loc 1 58 0
	nop
	pop	ebp
.LCFI61:
	.cfi_restore 5
	.cfi_def_cfa 4, 4
	ret
	.cfi_endproc
.LFE20:
	.size	__TASK_END_irq10, .-__TASK_END_irq10
	.globl	__TASK_START_irq11
	.type	__TASK_START_irq11, @function
__TASK_START_irq11:
.LFB21:
	.loc 1 60 0
	.cfi_startproc
	push	ebp
.LCFI62:
	.cfi_def_cfa_offset 8
	.cfi_offset 5, -8
	mov	ebp, esp
.LCFI63:
	.cfi_def_cfa_register 5
	.loc 1 60 0
	nop
	pop	ebp
.LCFI64:
	.cfi_restore 5
	.cfi_def_cfa 4, 4
	ret
	.cfi_endproc
.LFE21:
	.size	__TASK_START_irq11, .-__TASK_START_irq11
	.comm	irq11_ldt_segments,24,4
	.comm	ldt_irq11,8,4
	.comm	task_id_irq11,2,2
	.globl	irq11_tss
	.data
	.align 32
	.type	irq11_tss, @object
	.size	irq11_tss, 104
irq11_tss:
	.value	24
	.zero	6
	.value	16
	.zero	18
	.long	8192
	.long	segment_not_present
	.long	135
	.zero	16
	.long	12288
	.zero	12
	.value	32
	.zero	2
	.value	8
	.zero	2
	.value	16
	.zero	2
	.value	16
	.zero	2
	.value	16
	.zero	2
	.value	16
	.zero	10
	.text
	.globl	irq11_init
	.type	irq11_init, @function
irq11_init:
.LFB22:
	.loc 1 60 0
	.cfi_startproc
	push	ebp
.LCFI65:
	.cfi_def_cfa_offset 8
	.cfi_offset 5, -8
	mov	ebp, esp
.LCFI66:
	.cfi_def_cfa_register 5
	sub	esp, 24
	.loc 1 60 0
	mov	DWORD PTR ldt_irq11+2, OFFSET FLAT:irq11_ldt_segments
	mov	WORD PTR ldt_irq11, 24
	mov	WORD PTR ldt_irq11+6, 0
	mov	eax, OFFSET FLAT:irq11_tss
	sub	esp, 8
	push	1
	push	0
	push	1083648
	push	103
	push	eax
	push	OFFSET FLAT:gdt
	call	add_segment
	add	esp, 32
	mov	WORD PTR task_id_irq11, ax
	movzx	eax, WORD PTR ldt_irq11
	movzx	eax, ax
	mov	edx, OFFSET FLAT:irq11_ldt_segments
	sub	esp, 8
	push	1
	push	0
	push	4227584
	push	eax
	push	edx
	push	OFFSET FLAT:gdt
	call	add_segment
	add	esp, 32
	mov	WORD PTR [ebp-10], ax
	movzx	eax, WORD PTR task_id_irq11
	movzx	eax, ax
	add	eax, 53
	sal	eax, 12
	mov	DWORD PTR irq11_tss+4, eax
	movzx	eax, WORD PTR task_id_irq11
	movzx	eax, ax
	add	eax, 53
	sal	eax, 12
	mov	DWORD PTR irq11_tss+56, eax
	movzx	eax, WORD PTR [ebp-10]
	sal	eax, 3
	mov	WORD PTR irq11_tss+96, ax
	sub	esp, 8
	push	1
	push	0
	push	0
	push	0
	push	0
	push	OFFSET FLAT:ldt_irq11
	call	add_segment
	add	esp, 32
	mov	edx, OFFSET FLAT:__TASK_END_irq11
	mov	eax, OFFSET FLAT:__TASK_START_irq11
	sub	edx, eax
	mov	eax, edx
	mov	edx, eax
	mov	eax, OFFSET FLAT:__TASK_START_irq11
	sub	esp, 8
	push	1
	push	0
	push	14653952
	push	edx
	push	eax
	push	OFFSET FLAT:ldt_irq11
	call	add_segment
	add	esp, 32
	movzx	eax, WORD PTR task_id_irq11
	movzx	eax, ax
	add	eax, 53
	sal	eax, 12
	sub	esp, 8
	push	1
	push	0
	push	14652928
	push	65535
	push	eax
	push	OFFSET FLAT:ldt_irq11
	call	add_segment
	add	esp, 32
	nop
	leave
.LCFI67:
	.cfi_restore 5
	.cfi_def_cfa 4, 4
	ret
	.cfi_endproc
.LFE22:
	.size	irq11_init, .-irq11_init
	.globl	irq11_start
	.type	irq11_start, @function
irq11_start:
.LFB23:
	.loc 1 60 0
	.cfi_startproc
	push	ebp
.LCFI68:
	.cfi_def_cfa_offset 8
	.cfi_offset 5, -8
	mov	ebp, esp
.LCFI69:
	.cfi_def_cfa_register 5
	.loc 1 60 0
#APP
# 60 "irq.c" 1
	pushw 0xa0
# 0 "" 2
# 60 "irq.c" 1
	pushd 0x0
# 0 "" 2
# 60 "irq.c" 1
	jmp FAR PTR  [esp]
# 0 "" 2
#NO_APP
	nop
	pop	ebp
.LCFI70:
	.cfi_restore 5
	.cfi_def_cfa 4, 4
	ret
	.cfi_endproc
.LFE23:
	.size	irq11_start, .-irq11_start
	.globl	segment_not_present
	.type	segment_not_present, @function
segment_not_present:
.LFB24:
	.loc 1 61 0
	.cfi_startproc
	push	ebp
.LCFI71:
	.cfi_def_cfa_offset 8
	.cfi_offset 5, -8
	mov	ebp, esp
.LCFI72:
	.cfi_def_cfa_register 5
	.loc 1 62 0
#APP
# 62 "irq.c" 1
	add esp, 0x4
# 0 "" 2
# 62 "irq.c" 1
	leave
# 0 "" 2
# 62 "irq.c" 1
	pop eax
# 0 "" 2
# 62 "irq.c" 1
	iret
# 0 "" 2
	.loc 1 63 0
#NO_APP
	nop
	pop	ebp
.LCFI73:
	.cfi_restore 5
	.cfi_def_cfa 4, 4
	ret
	.cfi_endproc
.LFE24:
	.size	segment_not_present, .-segment_not_present
	.globl	__TASK_END_irq11
	.type	__TASK_END_irq11, @function
__TASK_END_irq11:
.LFB25:
	.loc 1 64 0
	.cfi_startproc
	push	ebp
.LCFI74:
	.cfi_def_cfa_offset 8
	.cfi_offset 5, -8
	mov	ebp, esp
.LCFI75:
	.cfi_def_cfa_register 5
	.loc 1 64 0
	nop
	pop	ebp
.LCFI76:
	.cfi_restore 5
	.cfi_def_cfa 4, 4
	ret
	.cfi_endproc
.LFE25:
	.size	__TASK_END_irq11, .-__TASK_END_irq11
	.globl	__TASK_START_irq13
	.type	__TASK_START_irq13, @function
__TASK_START_irq13:
.LFB26:
	.loc 1 66 0
	.cfi_startproc
	push	ebp
.LCFI77:
	.cfi_def_cfa_offset 8
	.cfi_offset 5, -8
	mov	ebp, esp
.LCFI78:
	.cfi_def_cfa_register 5
	.loc 1 66 0
	nop
	pop	ebp
.LCFI79:
	.cfi_restore 5
	.cfi_def_cfa 4, 4
	ret
	.cfi_endproc
.LFE26:
	.size	__TASK_START_irq13, .-__TASK_START_irq13
	.comm	irq13_ldt_segments,24,4
	.comm	ldt_irq13,8,4
	.comm	task_id_irq13,2,2
	.globl	irq13_tss
	.data
	.align 32
	.type	irq13_tss, @object
	.size	irq13_tss, 104
irq13_tss:
	.value	24
	.zero	6
	.value	16
	.zero	18
	.long	8192
	.long	general_protection_exception
	.long	135
	.zero	16
	.long	12288
	.zero	12
	.value	32
	.zero	2
	.value	8
	.zero	2
	.value	16
	.zero	2
	.value	16
	.zero	2
	.value	16
	.zero	2
	.value	16
	.zero	10
	.text
	.globl	irq13_init
	.type	irq13_init, @function
irq13_init:
.LFB27:
	.loc 1 66 0
	.cfi_startproc
	push	ebp
.LCFI80:
	.cfi_def_cfa_offset 8
	.cfi_offset 5, -8
	mov	ebp, esp
.LCFI81:
	.cfi_def_cfa_register 5
	sub	esp, 24
	.loc 1 66 0
	mov	DWORD PTR ldt_irq13+2, OFFSET FLAT:irq13_ldt_segments
	mov	WORD PTR ldt_irq13, 24
	mov	WORD PTR ldt_irq13+6, 0
	mov	eax, OFFSET FLAT:irq13_tss
	sub	esp, 8
	push	1
	push	0
	push	1083648
	push	103
	push	eax
	push	OFFSET FLAT:gdt
	call	add_segment
	add	esp, 32
	mov	WORD PTR task_id_irq13, ax
	movzx	eax, WORD PTR ldt_irq13
	movzx	eax, ax
	mov	edx, OFFSET FLAT:irq13_ldt_segments
	sub	esp, 8
	push	1
	push	0
	push	4227584
	push	eax
	push	edx
	push	OFFSET FLAT:gdt
	call	add_segment
	add	esp, 32
	mov	WORD PTR [ebp-10], ax
	movzx	eax, WORD PTR task_id_irq13
	movzx	eax, ax
	add	eax, 53
	sal	eax, 12
	mov	DWORD PTR irq13_tss+4, eax
	movzx	eax, WORD PTR task_id_irq13
	movzx	eax, ax
	add	eax, 53
	sal	eax, 12
	mov	DWORD PTR irq13_tss+56, eax
	movzx	eax, WORD PTR [ebp-10]
	sal	eax, 3
	mov	WORD PTR irq13_tss+96, ax
	sub	esp, 8
	push	1
	push	0
	push	0
	push	0
	push	0
	push	OFFSET FLAT:ldt_irq13
	call	add_segment
	add	esp, 32
	mov	edx, OFFSET FLAT:__TASK_END_irq13
	mov	eax, OFFSET FLAT:__TASK_START_irq13
	sub	edx, eax
	mov	eax, edx
	mov	edx, eax
	mov	eax, OFFSET FLAT:__TASK_START_irq13
	sub	esp, 8
	push	1
	push	0
	push	14653952
	push	edx
	push	eax
	push	OFFSET FLAT:ldt_irq13
	call	add_segment
	add	esp, 32
	movzx	eax, WORD PTR task_id_irq13
	movzx	eax, ax
	add	eax, 53
	sal	eax, 12
	sub	esp, 8
	push	1
	push	0
	push	14652928
	push	65535
	push	eax
	push	OFFSET FLAT:ldt_irq13
	call	add_segment
	add	esp, 32
	nop
	leave
.LCFI82:
	.cfi_restore 5
	.cfi_def_cfa 4, 4
	ret
	.cfi_endproc
.LFE27:
	.size	irq13_init, .-irq13_init
	.globl	irq13_start
	.type	irq13_start, @function
irq13_start:
.LFB28:
	.loc 1 66 0
	.cfi_startproc
	push	ebp
.LCFI83:
	.cfi_def_cfa_offset 8
	.cfi_offset 5, -8
	mov	ebp, esp
.LCFI84:
	.cfi_def_cfa_register 5
	.loc 1 66 0
#APP
# 66 "irq.c" 1
	pushw 0xa0
# 0 "" 2
# 66 "irq.c" 1
	pushd 0x0
# 0 "" 2
# 66 "irq.c" 1
	jmp FAR PTR  [esp]
# 0 "" 2
#NO_APP
	nop
	pop	ebp
.LCFI85:
	.cfi_restore 5
	.cfi_def_cfa 4, 4
	ret
	.cfi_endproc
.LFE28:
	.size	irq13_start, .-irq13_start
	.globl	general_protection_exception
	.type	general_protection_exception, @function
general_protection_exception:
.LFB29:
	.loc 1 67 0
	.cfi_startproc
	push	ebp
.LCFI86:
	.cfi_def_cfa_offset 8
	.cfi_offset 5, -8
	mov	ebp, esp
.LCFI87:
	.cfi_def_cfa_register 5
	sub	esp, 16
.L31:
	.loc 1 69 0 discriminator 1
#APP
# 69 "irq.c" 1
	mov eax, [ebp + 4]
# 0 "" 2
	.loc 1 70 0 discriminator 1
#NO_APP
	mov	DWORD PTR [ebp-4], 0
	.loc 1 71 0 discriminator 1
#APP
# 71 "irq.c" 1
	mov eax, eax
# 0 "" 2
#NO_APP
	mov	DWORD PTR [ebp-4], eax
	.loc 1 73 0 discriminator 1
#APP
# 73 "irq.c" 1
	add esp, 0x4
# 0 "" 2
# 73 "irq.c" 1
	leave
# 0 "" 2
# 73 "irq.c" 1
	pop eax
# 0 "" 2
# 73 "irq.c" 1
	iret
# 0 "" 2
	.loc 1 75 0 discriminator 1
# 75 "irq.c" 1
	mov ebp, esp
# 0 "" 2
	.loc 1 76 0 discriminator 1
# 76 "irq.c" 1
	sub ebp, 4
# 0 "" 2
	.loc 1 77 0 discriminator 1
#NO_APP
	jmp	.L31
	.cfi_endproc
.LFE29:
	.size	general_protection_exception, .-general_protection_exception
	.globl	__TASK_END_irq13
	.type	__TASK_END_irq13, @function
__TASK_END_irq13:
.LFB30:
	.loc 1 79 0
	.cfi_startproc
	push	ebp
.LCFI88:
	.cfi_def_cfa_offset 8
	.cfi_offset 5, -8
	mov	ebp, esp
.LCFI89:
	.cfi_def_cfa_register 5
	.loc 1 79 0
	nop
	pop	ebp
.LCFI90:
	.cfi_restore 5
	.cfi_def_cfa 4, 4
	ret
	.cfi_endproc
.LFE30:
	.size	__TASK_END_irq13, .-__TASK_END_irq13
	.globl	__TASK_START_irq32
	.type	__TASK_START_irq32, @function
__TASK_START_irq32:
.LFB31:
	.loc 1 81 0
	.cfi_startproc
	push	ebp
.LCFI91:
	.cfi_def_cfa_offset 8
	.cfi_offset 5, -8
	mov	ebp, esp
.LCFI92:
	.cfi_def_cfa_register 5
	.loc 1 81 0
	nop
	pop	ebp
.LCFI93:
	.cfi_restore 5
	.cfi_def_cfa 4, 4
	ret
	.cfi_endproc
.LFE31:
	.size	__TASK_START_irq32, .-__TASK_START_irq32
	.comm	irq32_ldt_segments,24,4
	.comm	ldt_irq32,8,4
	.comm	task_id_irq32,2,2
	.globl	irq32_tss
	.data
	.align 32
	.type	irq32_tss, @object
	.size	irq32_tss, 104
irq32_tss:
	.value	24
	.zero	6
	.value	16
	.zero	18
	.long	8192
	.long	lapic_timer_handler
	.long	135
	.zero	16
	.long	12288
	.zero	12
	.value	32
	.zero	2
	.value	8
	.zero	2
	.value	16
	.zero	2
	.value	16
	.zero	2
	.value	16
	.zero	2
	.value	16
	.zero	10
	.text
	.globl	irq32_init
	.type	irq32_init, @function
irq32_init:
.LFB32:
	.loc 1 81 0
	.cfi_startproc
	push	ebp
.LCFI94:
	.cfi_def_cfa_offset 8
	.cfi_offset 5, -8
	mov	ebp, esp
.LCFI95:
	.cfi_def_cfa_register 5
	sub	esp, 24
	.loc 1 81 0
	mov	DWORD PTR ldt_irq32+2, OFFSET FLAT:irq32_ldt_segments
	mov	WORD PTR ldt_irq32, 24
	mov	WORD PTR ldt_irq32+6, 0
	mov	eax, OFFSET FLAT:irq32_tss
	sub	esp, 8
	push	1
	push	0
	push	1083648
	push	103
	push	eax
	push	OFFSET FLAT:gdt
	call	add_segment
	add	esp, 32
	mov	WORD PTR task_id_irq32, ax
	movzx	eax, WORD PTR ldt_irq32
	movzx	eax, ax
	mov	edx, OFFSET FLAT:irq32_ldt_segments
	sub	esp, 8
	push	1
	push	0
	push	4227584
	push	eax
	push	edx
	push	OFFSET FLAT:gdt
	call	add_segment
	add	esp, 32
	mov	WORD PTR [ebp-10], ax
	movzx	eax, WORD PTR task_id_irq32
	movzx	eax, ax
	add	eax, 53
	sal	eax, 12
	mov	DWORD PTR irq32_tss+4, eax
	movzx	eax, WORD PTR task_id_irq32
	movzx	eax, ax
	add	eax, 53
	sal	eax, 12
	mov	DWORD PTR irq32_tss+56, eax
	movzx	eax, WORD PTR [ebp-10]
	sal	eax, 3
	mov	WORD PTR irq32_tss+96, ax
	sub	esp, 8
	push	1
	push	0
	push	0
	push	0
	push	0
	push	OFFSET FLAT:ldt_irq32
	call	add_segment
	add	esp, 32
	mov	edx, OFFSET FLAT:__TASK_END_irq32
	mov	eax, OFFSET FLAT:__TASK_START_irq32
	sub	edx, eax
	mov	eax, edx
	mov	edx, eax
	mov	eax, OFFSET FLAT:__TASK_START_irq32
	sub	esp, 8
	push	1
	push	0
	push	14653952
	push	edx
	push	eax
	push	OFFSET FLAT:ldt_irq32
	call	add_segment
	add	esp, 32
	movzx	eax, WORD PTR task_id_irq32
	movzx	eax, ax
	add	eax, 53
	sal	eax, 12
	sub	esp, 8
	push	1
	push	0
	push	14652928
	push	65535
	push	eax
	push	OFFSET FLAT:ldt_irq32
	call	add_segment
	add	esp, 32
	nop
	leave
.LCFI96:
	.cfi_restore 5
	.cfi_def_cfa 4, 4
	ret
	.cfi_endproc
.LFE32:
	.size	irq32_init, .-irq32_init
	.globl	irq32_start
	.type	irq32_start, @function
irq32_start:
.LFB33:
	.loc 1 81 0
	.cfi_startproc
	push	ebp
.LCFI97:
	.cfi_def_cfa_offset 8
	.cfi_offset 5, -8
	mov	ebp, esp
.LCFI98:
	.cfi_def_cfa_register 5
	.loc 1 81 0
#APP
# 81 "irq.c" 1
	pushw 0xa0
# 0 "" 2
# 81 "irq.c" 1
	pushd 0x0
# 0 "" 2
# 81 "irq.c" 1
	jmp FAR PTR  [esp]
# 0 "" 2
#NO_APP
	nop
	pop	ebp
.LCFI99:
	.cfi_restore 5
	.cfi_def_cfa 4, 4
	ret
	.cfi_endproc
.LFE33:
	.size	irq32_start, .-irq32_start
	.globl	current_task_id
	.data
	.align 4
	.type	current_task_id, @object
	.size	current_task_id, 4
current_task_id:
	.long	1
	.text
	.globl	lapic_timer_handler
	.type	lapic_timer_handler, @function
lapic_timer_handler:
.LFB34:
	.loc 1 83 0
	.cfi_startproc
	push	ebp
.LCFI100:
	.cfi_def_cfa_offset 8
	.cfi_offset 5, -8
	mov	ebp, esp
.LCFI101:
	.cfi_def_cfa_register 5
	sub	esp, 16
.L37:
	.loc 1 91 0
	mov	eax, DWORD PTR current_task_id
	cmp	eax, 1
	jne	.L38
	.loc 1 92 0
	mov	DWORD PTR current_task_id, 2
	jmp	.L39
.L38:
	.loc 1 94 0
	mov	DWORD PTR current_task_id, 1
.L39:
	.loc 1 96 0
	mov	DWORD PTR [ebp-4], -18874192
	mov	eax, DWORD PTR [ebp-4]
	mov	DWORD PTR [eax], 1
	.loc 1 97 0
#APP
# 97 "irq.c" 1
	add esp, 0x4
# 0 "" 2
# 97 "irq.c" 1
	leave
# 0 "" 2
# 97 "irq.c" 1
	pop eax
# 0 "" 2
# 97 "irq.c" 1
	iret
# 0 "" 2
	.loc 1 98 0
# 98 "irq.c" 1
	mov ebp, esp
# 0 "" 2
	.loc 1 99 0
# 99 "irq.c" 1
	sub ebp, 4
# 0 "" 2
	.loc 1 100 0
#NO_APP
	jmp	.L37
	.cfi_endproc
.LFE34:
	.size	lapic_timer_handler, .-lapic_timer_handler
	.globl	__TASK_END_irq32
	.type	__TASK_END_irq32, @function
__TASK_END_irq32:
.LFB35:
	.loc 1 102 0
	.cfi_startproc
	push	ebp
.LCFI102:
	.cfi_def_cfa_offset 8
	.cfi_offset 5, -8
	mov	ebp, esp
.LCFI103:
	.cfi_def_cfa_register 5
	.loc 1 102 0
	nop
	pop	ebp
.LCFI104:
	.cfi_restore 5
	.cfi_def_cfa 4, 4
	ret
	.cfi_endproc
.LFE35:
	.size	__TASK_END_irq32, .-__TASK_END_irq32
	.globl	__TASK_START_irq20
	.type	__TASK_START_irq20, @function
__TASK_START_irq20:
.LFB36:
	.loc 1 104 0
	.cfi_startproc
	push	ebp
.LCFI105:
	.cfi_def_cfa_offset 8
	.cfi_offset 5, -8
	mov	ebp, esp
.LCFI106:
	.cfi_def_cfa_register 5
	.loc 1 104 0
	nop
	pop	ebp
.LCFI107:
	.cfi_restore 5
	.cfi_def_cfa 4, 4
	ret
	.cfi_endproc
.LFE36:
	.size	__TASK_START_irq20, .-__TASK_START_irq20
	.comm	irq20_ldt_segments,24,4
	.comm	ldt_irq20,8,4
	.comm	task_id_irq20,2,2
	.globl	irq20_tss
	.data
	.align 32
	.type	irq20_tss, @object
	.size	irq20_tss, 104
irq20_tss:
	.value	24
	.zero	6
	.value	16
	.zero	18
	.long	8192
	.long	double_fault_handler2
	.long	135
	.zero	16
	.long	12288
	.zero	12
	.value	32
	.zero	2
	.value	8
	.zero	2
	.value	16
	.zero	2
	.value	16
	.zero	2
	.value	16
	.zero	2
	.value	16
	.zero	10
	.text
	.globl	irq20_init
	.type	irq20_init, @function
irq20_init:
.LFB37:
	.loc 1 104 0
	.cfi_startproc
	push	ebp
.LCFI108:
	.cfi_def_cfa_offset 8
	.cfi_offset 5, -8
	mov	ebp, esp
.LCFI109:
	.cfi_def_cfa_register 5
	sub	esp, 24
	.loc 1 104 0
	mov	DWORD PTR ldt_irq20+2, OFFSET FLAT:irq20_ldt_segments
	mov	WORD PTR ldt_irq20, 24
	mov	WORD PTR ldt_irq20+6, 0
	mov	eax, OFFSET FLAT:irq20_tss
	sub	esp, 8
	push	1
	push	0
	push	1083648
	push	103
	push	eax
	push	OFFSET FLAT:gdt
	call	add_segment
	add	esp, 32
	mov	WORD PTR task_id_irq20, ax
	movzx	eax, WORD PTR ldt_irq20
	movzx	eax, ax
	mov	edx, OFFSET FLAT:irq20_ldt_segments
	sub	esp, 8
	push	1
	push	0
	push	4227584
	push	eax
	push	edx
	push	OFFSET FLAT:gdt
	call	add_segment
	add	esp, 32
	mov	WORD PTR [ebp-10], ax
	movzx	eax, WORD PTR task_id_irq20
	movzx	eax, ax
	add	eax, 53
	sal	eax, 12
	mov	DWORD PTR irq20_tss+4, eax
	movzx	eax, WORD PTR task_id_irq20
	movzx	eax, ax
	add	eax, 53
	sal	eax, 12
	mov	DWORD PTR irq20_tss+56, eax
	movzx	eax, WORD PTR [ebp-10]
	sal	eax, 3
	mov	WORD PTR irq20_tss+96, ax
	sub	esp, 8
	push	1
	push	0
	push	0
	push	0
	push	0
	push	OFFSET FLAT:ldt_irq20
	call	add_segment
	add	esp, 32
	mov	edx, OFFSET FLAT:__TASK_END_irq20
	mov	eax, OFFSET FLAT:__TASK_START_irq20
	sub	edx, eax
	mov	eax, edx
	mov	edx, eax
	mov	eax, OFFSET FLAT:__TASK_START_irq20
	sub	esp, 8
	push	1
	push	0
	push	14653952
	push	edx
	push	eax
	push	OFFSET FLAT:ldt_irq20
	call	add_segment
	add	esp, 32
	movzx	eax, WORD PTR task_id_irq20
	movzx	eax, ax
	add	eax, 53
	sal	eax, 12
	sub	esp, 8
	push	1
	push	0
	push	14652928
	push	65535
	push	eax
	push	OFFSET FLAT:ldt_irq20
	call	add_segment
	add	esp, 32
	nop
	leave
.LCFI110:
	.cfi_restore 5
	.cfi_def_cfa 4, 4
	ret
	.cfi_endproc
.LFE37:
	.size	irq20_init, .-irq20_init
	.globl	irq20_start
	.type	irq20_start, @function
irq20_start:
.LFB38:
	.loc 1 104 0
	.cfi_startproc
	push	ebp
.LCFI111:
	.cfi_def_cfa_offset 8
	.cfi_offset 5, -8
	mov	ebp, esp
.LCFI112:
	.cfi_def_cfa_register 5
	.loc 1 104 0
#APP
# 104 "irq.c" 1
	pushw 0xa0
# 0 "" 2
# 104 "irq.c" 1
	pushd 0x0
# 0 "" 2
# 104 "irq.c" 1
	jmp FAR PTR  [esp]
# 0 "" 2
#NO_APP
	nop
	pop	ebp
.LCFI113:
	.cfi_restore 5
	.cfi_def_cfa 4, 4
	ret
	.cfi_endproc
.LFE38:
	.size	irq20_start, .-irq20_start
	.globl	double_fault_handler2
	.type	double_fault_handler2, @function
double_fault_handler2:
.LFB39:
	.loc 1 105 0
	.cfi_startproc
	push	ebp
.LCFI114:
	.cfi_def_cfa_offset 8
	.cfi_offset 5, -8
	mov	ebp, esp
.LCFI115:
	.cfi_def_cfa_register 5
	.loc 1 106 0
#APP
# 106 "irq.c" 1
	add esp, 0x4
# 0 "" 2
# 106 "irq.c" 1
	leave
# 0 "" 2
# 106 "irq.c" 1
	pop eax
# 0 "" 2
# 106 "irq.c" 1
	iret
# 0 "" 2
	.loc 1 107 0
#NO_APP
	nop
	pop	ebp
.LCFI116:
	.cfi_restore 5
	.cfi_def_cfa 4, 4
	ret
	.cfi_endproc
.LFE39:
	.size	double_fault_handler2, .-double_fault_handler2
	.globl	__TASK_END_irq20
	.type	__TASK_END_irq20, @function
__TASK_END_irq20:
.LFB40:
	.loc 1 108 0
	.cfi_startproc
	push	ebp
.LCFI117:
	.cfi_def_cfa_offset 8
	.cfi_offset 5, -8
	mov	ebp, esp
.LCFI118:
	.cfi_def_cfa_register 5
	.loc 1 108 0
	nop
	pop	ebp
.LCFI119:
	.cfi_restore 5
	.cfi_def_cfa 4, 4
	ret
	.cfi_endproc
.LFE40:
	.size	__TASK_END_irq20, .-__TASK_END_irq20
.Letext0:
	.file 2 "/usr/include/stdint.h"
	.file 3 "gdt.h"
	.file 4 "task.h"
	.file 5 "irq.h"
	.section	.note.GNU-stack,"",@progbits
