	.file	"task1.c"
	.intel_syntax noprefix
	.text
.Ltext0:
	.cfi_sections	.debug_frame
	.globl	task1_tss
	.data
	.align 32
	.type	task1_tss, @object
	.size	task1_tss, 104
task1_tss:
	.value	24
	.zero	6
	.value	16
	.zero	18
	.long	8192
	.long	init_task1
	.long	135
	.zero	16
	.long	12288
	.zero	12
	.value	32
	.zero	2
	.value	8
	.zero	2
	.value	16
	.zero	2
	.value	16
	.zero	2
	.value	16
	.zero	2
	.value	16
	.zero	10
	.text
	.globl	__TASK_START_task1
	.type	__TASK_START_task1, @function
__TASK_START_task1:
.LFB0:
	.file 1 "task1.c"
	.loc 1 3 0
	.cfi_startproc
	push	ebp
.LCFI0:
	.cfi_def_cfa_offset 8
	.cfi_offset 5, -8
	mov	ebp, esp
.LCFI1:
	.cfi_def_cfa_register 5
	.loc 1 3 0
	nop
	pop	ebp
.LCFI2:
	.cfi_restore 5
	.cfi_def_cfa 4, 4
	ret
	.cfi_endproc
.LFE0:
	.size	__TASK_START_task1, .-__TASK_START_task1
	.comm	task1_ldt_segments,24,4
	.comm	ldt_task1,8,4
	.comm	task_id_task1,2,2
	.globl	task1_init
	.type	task1_init, @function
task1_init:
.LFB1:
	.loc 1 3 0
	.cfi_startproc
	push	ebp
.LCFI3:
	.cfi_def_cfa_offset 8
	.cfi_offset 5, -8
	mov	ebp, esp
.LCFI4:
	.cfi_def_cfa_register 5
	sub	esp, 24
	.loc 1 3 0
	mov	DWORD PTR ldt_task1+2, OFFSET FLAT:task1_ldt_segments
	mov	WORD PTR ldt_task1, 24
	mov	WORD PTR ldt_task1+6, 0
	mov	eax, OFFSET FLAT:task1_tss
	sub	esp, 8
	push	1
	push	0
	push	1083648
	push	103
	push	eax
	push	OFFSET FLAT:gdt
	call	add_segment
	add	esp, 32
	mov	WORD PTR task_id_task1, ax
	movzx	eax, WORD PTR ldt_task1
	movzx	eax, ax
	mov	edx, OFFSET FLAT:task1_ldt_segments
	sub	esp, 8
	push	1
	push	0
	push	4227584
	push	eax
	push	edx
	push	OFFSET FLAT:gdt
	call	add_segment
	add	esp, 32
	mov	WORD PTR [ebp-10], ax
	movzx	eax, WORD PTR task_id_task1
	movzx	eax, ax
	add	eax, 53
	sal	eax, 12
	mov	DWORD PTR task1_tss+4, eax
	movzx	eax, WORD PTR task_id_task1
	movzx	eax, ax
	add	eax, 53
	sal	eax, 12
	mov	DWORD PTR task1_tss+56, eax
	movzx	eax, WORD PTR [ebp-10]
	sal	eax, 3
	mov	WORD PTR task1_tss+96, ax
	sub	esp, 8
	push	1
	push	0
	push	0
	push	0
	push	0
	push	OFFSET FLAT:ldt_task1
	call	add_segment
	add	esp, 32
	mov	edx, OFFSET FLAT:__TASK_END_task1
	mov	eax, OFFSET FLAT:__TASK_START_task1
	sub	edx, eax
	mov	eax, edx
	mov	edx, eax
	mov	eax, OFFSET FLAT:__TASK_START_task1
	sub	esp, 8
	push	1
	push	0
	push	14653952
	push	edx
	push	eax
	push	OFFSET FLAT:ldt_task1
	call	add_segment
	add	esp, 32
	movzx	eax, WORD PTR task_id_task1
	movzx	eax, ax
	add	eax, 53
	sal	eax, 12
	sub	esp, 8
	push	1
	push	0
	push	14652928
	push	65535
	push	eax
	push	OFFSET FLAT:ldt_task1
	call	add_segment
	add	esp, 32
	nop
	leave
.LCFI5:
	.cfi_restore 5
	.cfi_def_cfa 4, 4
	ret
	.cfi_endproc
.LFE1:
	.size	task1_init, .-task1_init
	.globl	task1_start
	.type	task1_start, @function
task1_start:
.LFB2:
	.loc 1 3 0
	.cfi_startproc
	push	ebp
.LCFI6:
	.cfi_def_cfa_offset 8
	.cfi_offset 5, -8
	mov	ebp, esp
.LCFI7:
	.cfi_def_cfa_register 5
	.loc 1 3 0
#APP
# 3 "task1.c" 1
	pushw 0xa0
# 0 "" 2
# 3 "task1.c" 1
	pushd 0x0
# 0 "" 2
# 3 "task1.c" 1
	jmp FAR PTR  [esp]
# 0 "" 2
#NO_APP
	nop
	pop	ebp
.LCFI8:
	.cfi_restore 5
	.cfi_def_cfa 4, 4
	ret
	.cfi_endproc
.LFE2:
	.size	task1_start, .-task1_start
	.comm	task1_var,4,4
	.globl	job1
	.type	job1, @function
job1:
.LFB3:
	.loc 1 6 0
	.cfi_startproc
	push	ebp
.LCFI9:
	.cfi_def_cfa_offset 8
	.cfi_offset 5, -8
	mov	ebp, esp
.LCFI10:
	.cfi_def_cfa_register 5
	.loc 1 7 0
	mov	DWORD PTR task1_var, 1
	.loc 1 8 0
	nop
	pop	ebp
.LCFI11:
	.cfi_restore 5
	.cfi_def_cfa 4, 4
	ret
	.cfi_endproc
.LFE3:
	.size	job1, .-job1
	.globl	job2
	.type	job2, @function
job2:
.LFB4:
	.loc 1 10 0
	.cfi_startproc
	push	ebp
.LCFI12:
	.cfi_def_cfa_offset 8
	.cfi_offset 5, -8
	mov	ebp, esp
.LCFI13:
	.cfi_def_cfa_register 5
	.loc 1 11 0
	mov	DWORD PTR task1_var, 2
	.loc 1 12 0
	nop
	pop	ebp
.LCFI14:
	.cfi_restore 5
	.cfi_def_cfa 4, 4
	ret
	.cfi_endproc
.LFE4:
	.size	job2, .-job2
	.globl	init_task1
	.type	init_task1, @function
init_task1:
.LFB5:
	.loc 1 14 0
	.cfi_startproc
	push	ebp
.LCFI15:
	.cfi_def_cfa_offset 8
	.cfi_offset 5, -8
	mov	ebp, esp
.LCFI16:
	.cfi_def_cfa_register 5
	sub	esp, 16
	.loc 1 15 0
	mov	eax, 3
	mov	ecx, 0
	cdq
	idiv	ecx
	mov	DWORD PTR [ebp-4], eax
	.loc 1 16 0
	push	2
	push	1
	call	job1
	add	esp, 8
	.loc 1 17 0
	call	job2
	.loc 1 18 0
	nop
	leave
.LCFI17:
	.cfi_restore 5
	.cfi_def_cfa 4, 4
	ret
	.cfi_endproc
.LFE5:
	.size	init_task1, .-init_task1
	.globl	__TASK_END_task1
	.type	__TASK_END_task1, @function
__TASK_END_task1:
.LFB6:
	.loc 1 20 0
	.cfi_startproc
	push	ebp
.LCFI18:
	.cfi_def_cfa_offset 8
	.cfi_offset 5, -8
	mov	ebp, esp
.LCFI19:
	.cfi_def_cfa_register 5
	.loc 1 20 0
	nop
	pop	ebp
.LCFI20:
	.cfi_restore 5
	.cfi_def_cfa 4, 4
	ret
	.cfi_endproc
.LFE6:
	.size	__TASK_END_task1, .-__TASK_END_task1
.Letext0:
	.file 2 "/usr/include/stdint.h"
	.file 3 "gdt.h"
	.file 4 "task.h"
	.section	.note.GNU-stack,"",@progbits
